(dp0
S'IRAS_20126+4104'
p1
(dp2
S'1'
p3
(dp4
S'Mass_c[Mo]'
p5
F80.0
sS'sigma_cl[g cm^-2]'
p6
F0.3
sS'Mass_star[Mo]'
p7
F16.0
sS'Lum_bol[Lo]'
p8
F42000.0
ssS'3'
p9
(dp10
g5
F200.0
sg6
F0.1
sg7
F12.0
sg8
F20000.0
ssS'2'
p11
(dp12
g5
F120.0
sg6
F0.3
sg7
F24.0
sg8
F93000.0
ssS'5'
p13
(dp14
g5
F100.0
sg6
F0.3
sg7
F16.0
sg8
F45000.0
ssS'4'
p15
(dp16
g5
F80.0
sg6
F0.3
sg7
F12.0
sg8
F34000.0
sssS'Cepheus_A'
p17
(dp18
g3
(dp19
g5
F160.0
sg6
F0.3
sg7
F16.0
sg8
F50000.0
ssg9
(dp20
g5
F480.0
sg6
F0.1
sg7
F12.0
sg8
F24000.0
ssg11
(dp21
g5
F160.0
sg6
F0.3
sg7
F12.0
sg8
F38000.0
ssg13
(dp22
g5
F120.0
sg6
F0.3
sg7
F12.0
sg8
F36000.0
ssg15
(dp23
g5
F160.0
sg6
F0.3
sg7
F24.0
sg8
F99000.0
sssS'AFGL_4029'
p24
(dp25
g3
(dp26
g5
F30.0
sg6
F1.0
sg7
F12.0
sg8
F41000.0
ssg9
(dp27
g5
F80.0
sg6
F0.1
sg7
F12.0
sg8
F16000.0
ssg11
(dp28
g5
F160.0
sg6
F0.3
sg7
F48.0
sg8
F340000.0
ssg13
(dp29
g5
F50.0
sg6
F0.3
sg7
F12.0
sg8
F24000.0
ssg15
(dp30
g5
F60.0
sg6
F0.3
sg7
F16.0
sg8
F36000.0
sssS'NGC_7538_IRS9'
p31
(dp32
g3
(dp33
g5
F400.0
sg6
F0.1
sg7
F16.0
sg8
F38000.0
ssg9
(dp34
g5
F240.0
sg6
F0.1
sg7
F24.0
sg8
F82000.0
ssg11
(dp35
g5
F320.0
sg6
F0.1
sg7
F16.0
sg8
F37000.0
ssg13
(dp36
g5
F60.0
sg6
F3.2
sg7
F12.0
sg8
F50000.0
ssg15
(dp37
g5
F480.0
sg6
F0.1
sg7
F16.0
sg8
F38000.0
sssS'IRAS_07299-1651'
p38
(dp39
g3
(dp40
g5
F240.0
sg6
F0.1
sg7
F8.0
sg8
F11000.0
ssg9
(dp41
g5
F240.0
sg6
F0.1
sg7
F12.0
sg8
F20000.0
ssg11
(dp42
g5
F80.0
sg6
F0.3
sg7
F16.0
sg8
F42000.0
ssg13
(dp43
g5
F400.0
sg6
F0.1
sg7
F8.0
sg8
F10000.0
ssg15
(dp44
g5
F200.0
sg6
F0.1
sg7
F12.0
sg8
F20000.0
sssS'G35.20-0.74'
p45
(dp46
g3
(dp47
g5
F480.0
sg6
F0.1
sg7
F16.0
sg8
F38000.0
ssg9
(dp48
g5
F200.0
sg6
F0.3
sg7
F12.0
sg8
F39000.0
ssg11
(dp49
g5
F100.0
sg6
F3.2
sg7
F12.0
sg8
F52000.0
ssg13
(dp50
g5
F80.0
sg6
F3.2
sg7
F12.0
sg8
F50000.0
ssg15
(dp51
g5
F320.0
sg6
F0.1
sg7
F24.0
sg8
F84000.0
sssS'AFGL_437'
p52
(dp53
g3
(dp54
g5
F10.0
sg6
F3.2
sg7
F2.0
sg8
F2590.0
ssg9
(dp55
g5
F50.0
sg6
F0.3
sg7
F16.0
sg8
F31300.0
ssg11
(dp56
g5
F50.0
sg6
F0.1
sg7
F12.0
sg8
F13600.0
ssg13
(dp57
g5
F60.0
sg6
F1.0
sg7
F24.0
sg8
F92900.0
ssg15
(dp58
g5
F20.0
sg6
F3.2
sg7
F4.0
sg8
F3330.0
sssS'G45.47+0.05'
p59
(dp60
g3
(dp61
g5
F200.0
sg6
F3.2
sg7
F32.0
sg8
F460000.0
ssg9
(dp62
g5
F240.0
sg6
F1.0
sg7
F32.0
sg8
F260000.0
ssg11
(dp63
g5
F320.0
sg6
F1.0
sg7
F48.0
sg8
F510000.0
ssg13
(dp64
g5
F240.0
sg6
F1.0
sg7
F24.0
sg8
F170000.0
ssg15
(dp65
g5
F320.0
sg6
F1.0
sg7
F32.0
sg8
F270000.0
sss.