(dp0
S'G18.146-0.284'
p1
(dp2
S'Radio_lum'
p3
S'na'
p4
sS'Dist'
p5
S'4.2'
p6
sS'Pdot'
p7
S'na'
p8
sS'Refs'
p9
S'Kurtz_94'
p10
sS'Flux'
p11
S'48600.'
p12
sS'Lum_bol'
p13
S'24.8e4'
p14
ssS'Ang6'
p15
(dp16
g3
S'na'
p17
sg5
S'0.16'
p18
sg7
S'1.6e-3'
p19
sg9
S'Anglada_92'
p20
sg11
S'2900.'
p21
sg13
S'na'
p22
ssS'Ang7'
p23
(dp24
g3
S'na'
p25
sg5
S'0.30'
p26
sg7
S'3.2e-4'
p27
sg9
S'Anglada_92'
p28
sg11
S'400.'
p29
sg13
S'na'
p30
ssS'Ang8'
p31
(dp32
g3
S'na'
p33
sg5
S'0.25'
p34
sg7
S'2.0e-5'
p35
sg9
S'Anglada_92'
p36
sg11
S'200.'
p37
sg13
S'na'
p38
ssS'Ang41'
p39
(dp40
g3
S'1.1e-2'
p41
sg5
S'na'
p42
sg7
S'2.8e-5'
p43
sg9
S'Anglada_95'
p44
sg11
S'na'
p45
sg13
S'1.'
p46
ssS'Ang40'
p47
(dp48
g3
S'4.8e-2'
p49
sg5
S'na'
p50
sg7
S'4.9e-5'
p51
sg9
S'Anglada_95'
p52
sg11
S'na'
p53
sg13
S'14.'
p54
ssS'Ang17'
p55
(dp56
g3
S'9.8e-2'
p57
sg5
S'na'
p58
sg7
S'1.1e-3'
p59
sg9
S'Anglada_95'
p60
sg11
S'na'
p61
sg13
S'80.'
p62
ssS'Ang14'
p63
(dp64
g3
S'na'
p65
sg5
S'0.48'
p66
sg7
S'1.3e-4'
p67
sg9
S'Anglada_92'
p68
sg11
S'200.'
p69
sg13
S'na'
p70
ssS'Ang13'
p71
(dp72
g3
S'na'
p73
sg5
S'0.80'
p74
sg7
S'3.0e-3'
p75
sg9
S'Anglada_92'
p76
sg11
S'1900.'
p77
sg13
S'na'
p78
ssS'Ang10'
p79
(dp80
g3
S'na'
p81
sg5
S'0.35'
p82
sg7
S'4.5e-4'
p83
sg9
S'Anglada_92'
p84
sg11
S'100.'
p85
sg13
S'na'
p86
ssS'Ang11'
p87
(dp88
g3
S'na'
p89
sg5
S'0.35'
p90
sg7
S'1.2e-4'
p91
sg9
S'Anglada_92'
p92
sg11
S'900.'
p93
sg13
S'na'
p94
ssS'G37.874-0.399'
p95
(dp96
g3
S'na'
p97
sg5
S'9.2'
p98
sg7
S'na'
p99
sg9
S'Kurtz_94'
p100
sg11
S'2342800.'
p101
sg13
S'72.6e4'
p102
ssS'18566'
p103
(dp104
g3
S'31.42'
p105
sg5
S'na'
p106
sg7
S'7.2e-3'
p107
sg9
S'Anglada_talk'
p108
sg11
S'na'
p109
sg13
S'6.3e4'
p110
ssS'Ang18'
p111
(dp112
g3
S'9.8e-3'
p113
sg5
S'na'
p114
sg7
S'2.0e-7'
p115
sg9
S'Anglada_95'
p116
sg11
S'na'
p117
sg13
S'4.'
p118
ssS'Ang19'
p119
(dp120
g3
S'1.1e-1'
p121
sg5
S'na'
p122
sg7
S'4.0e-5'
p123
sg9
S'Anglada_95'
p124
sg11
S'na'
p125
sg13
S'17.'
p126
ssS'G138.295+1.555'
p127
(dp128
g3
S'na'
p129
sg5
S'3.8'
p130
sg7
S'na'
p131
sg9
S'Kurtz_94'
p132
sg11
S'2.1e3'
p133
sg13
S'3.7e4'
p134
ssS'G78.438+2.659'
p135
(dp136
g3
S'na'
p137
sg5
S'3.3'
p138
sg7
S'na'
p139
sg9
S'Kurtz_94'
p140
sg11
S'82200.'
p141
sg13
S'7.0e4'
p142
ssS'V645Cyg'
p143
(dp144
g3
S'7.35'
p145
sg5
S'na'
p146
sg7
S'7.0e-4'
p147
sg9
S'Anglada_talk'
p148
sg11
S'na'
p149
sg13
S'4.0e4'
p150
ssS'G60.884-0.128'
p151
(dp152
g3
S'na'
p153
sg5
S'2.3'
p154
sg7
S'na'
p155
sg9
S'Kurtz_94'
p156
sg11
S'31800.'
p157
sg13
S'5.4e4'
p158
ssS'Ang23'
p159
(dp160
g3
S'3.6e-2'
p161
sg5
S'na'
p162
sg7
S'2.6e-4'
p163
sg9
S'Anglada_95'
p164
sg11
S'na'
p165
sg13
S'2.'
p166
ssS'Ang22'
p167
(dp168
g3
S'7.4e-2'
p169
sg5
S'na'
p170
sg7
S'8.7e-3'
p171
sg9
S'Anglada_95'
p172
sg11
S'na'
p173
sg13
S'27.'
p174
ssS'Ang21'
p175
(dp176
g3
S'7.7e-3'
p177
sg5
S'na'
p178
sg7
S'1.4e-6'
p179
sg9
S'Anglada_95'
p180
sg11
S'na'
p181
sg13
S'9.'
p182
ssS'Ang20'
p183
(dp184
g3
S'9.0e-2'
p185
sg5
S'na'
p186
sg7
S'1.1e-4'
p187
sg9
S'Anglada_95'
p188
sg11
S'na'
p189
sg13
S'33.'
p190
ssS'Ang27'
p191
(dp192
g3
S'8.1e-2'
p193
sg5
S'na'
p194
sg7
S'1.2e-4'
p195
sg9
S'Anglada_95'
p196
sg11
S'na'
p197
sg13
S'10.'
p198
ssS'Ang26'
p199
(dp200
g3
S'9.0e-3'
p201
sg5
S'na'
p202
sg7
S'4.5e-4'
p203
sg9
S'Anglada_95'
p204
sg11
S'na'
p205
sg13
S'9.'
p206
ssS'Ang25'
p207
(dp208
g3
S'5.0e-2'
p209
sg5
S'na'
p210
sg7
S'1.0e-4'
p211
sg9
S'Anglada_95'
p212
sg11
S'na'
p213
sg13
S'80.'
p214
ssS'Ang24'
p215
(dp216
g3
S'1.3e-2'
p217
sg5
S'na'
p218
sg7
S'7.9e-6'
p219
sg9
S'Anglada_95'
p220
sg11
S'na'
p221
sg13
S'4.'
p222
ssS'Ang29'
p223
(dp224
g3
S'2.6e-1'
p225
sg5
S'na'
p226
sg7
S'3.0e-3'
p227
sg9
S'Anglada_95'
p228
sg11
S'na'
p229
sg13
S'12.'
p230
ssS'Ang28'
p231
(dp232
g3
S'1.5e-2'
p233
sg5
S'na'
p234
sg7
S'4.5e-4'
p235
sg9
S'Anglada_95'
p236
sg11
S'na'
p237
sg13
S'1.'
p238
ssS'G81.68+0.54'
p239
(dp240
g3
S'na'
p241
sg5
S'2.0'
p242
sg7
S'na'
p243
sg9
S'Kurtz_94'
p244
sg11
S'738300.'
p245
sg13
S'4.0e4'
p246
ssS'G111.612+0.374'
p247
(dp248
g3
S'na'
p249
sg5
S'5.2'
p250
sg7
S'na'
p251
sg9
S'Kurtz_94'
p252
sg11
S'787.9e3'
p253
sg13
S'18.6e4'
p254
ssS'Sc48'
p255
(dp256
g3
S'na'
p257
sg5
S'0.26'
p258
sg7
S'na'
p259
sg9
S'Scaife_2012'
p260
sg11
S'148.'
p261
sg13
S'13.8'
p262
ssS'Sc49'
p263
(dp264
g3
S'na'
p265
sg5
S'0.26'
p266
sg7
S'na'
p267
sg9
S'Scaife_2012'
p268
sg11
S'151.'
p269
sg13
S'0.62'
p270
ssS'Sc42'
p271
(dp272
g3
S'na'
p273
sg5
S'0.26'
p274
sg7
S'na'
p275
sg9
S'Scaife_2012'
p276
sg11
S'101.'
p277
sg13
S'1.2'
p278
ssS'Sc43'
p279
(dp280
g3
S'na'
p281
sg5
S'0.26'
p282
sg7
S'na'
p283
sg9
S'Scaife_2012'
p284
sg11
S'102.'
p285
sg13
S'4.4'
p286
ssS'Sc40'
p287
(dp288
g3
S'na'
p289
sg5
S'0.26'
p290
sg7
S'na'
p291
sg9
S'Scaife_2012'
p292
sg11
S'4736.'
p293
sg13
S'17.3'
p294
ssS'Sc41'
p295
(dp296
g3
S'na'
p297
sg5
S'0.26'
p298
sg7
S'na'
p299
sg9
S'Scaife_2012'
p300
sg11
S'1301.'
p301
sg13
S'2.6'
p302
ssS'Sc46'
p303
(dp304
g3
S'na'
p305
sg5
S'0.26'
p306
sg7
S'na'
p307
sg9
S'Scaife_2012'
p308
sg11
S'245.'
p309
sg13
S'1.1'
p310
ssS'Sc47'
p311
(dp312
g3
S'na'
p313
sg5
S'0.26'
p314
sg7
S'na'
p315
sg9
S'Scaife_2012'
p316
sg11
S'125.'
p317
sg13
S'5.8'
p318
ssS'Sc44'
p319
(dp320
g3
S'na'
p321
sg5
S'0.26'
p322
sg7
S'na'
p323
sg9
S'Scaife_2012'
p324
sg11
S'110.'
p325
sg13
S'1.7'
p326
ssS'Sc45'
p327
(dp328
g3
S'na'
p329
sg5
S'0.26'
p330
sg7
S'na'
p331
sg9
S'Scaife_2012'
p332
sg11
S'355.'
p333
sg13
S'2.1'
p334
ssS'G28.200-0.049'
p335
(dp336
g3
S'na'
p337
sg5
S'9.1'
p338
sg7
S'na'
p339
sg9
S'Kurtz_94'
p340
sg11
S'297000.'
p341
sg13
S'47.6e4'
p342
ssS'HH80'
p343
(dp344
g3
S'8.67'
p345
sg5
S'1.7'
p346
sg7
S'5.3e-2'
p347
sg9
S'Anglada_talk'
p348
sg11
S'na'
p349
sg13
S'2.0e4'
p350
ssS'Sc9'
p351
(dp352
g3
S'na'
p353
sg5
S'0.25'
p354
sg7
S'na'
p355
sg9
S'Scaife_2011'
p356
sg11
S'110'
p357
sg13
S'0.18'
p358
ssS'Sc8'
p359
(dp360
g3
S'na'
p361
sg5
S'0.25'
p362
sg7
S'0.5e-6'
p363
sg9
S'Scaife_2011'
p364
sg11
S'93'
p365
sg13
S'0.32'
p366
ssS'G10.841-2.592'
p367
(dp368
g3
S'na'
p369
sg5
S'1.9'
p370
sg7
S'na'
p371
sg9
S'Kurtz_94'
p372
sg11
S'3600.'
p373
sg13
S'2.8e4'
p374
ssS'Sc5'
p375
(dp376
g3
S'na'
p377
sg5
S'0.25'
p378
sg7
S'3.4e-6'
p379
sg9
S'Scaife_2011'
p380
sg11
S'578.9'
p381
sg13
S'0.2'
p382
ssS'Sc4'
p383
(dp384
g3
S'na'
p385
sg5
S'0.25'
p386
sg7
S'9.8e-6'
p387
sg9
S'Scaife_2011'
p388
sg11
S'128.5'
p389
sg13
S'0.8'
p390
ssS'Sc7'
p391
(dp392
g3
S'na'
p393
sg5
S'0.25'
p394
sg7
S'4.0e-6'
p395
sg9
S'Scaife_2011'
p396
sg11
S'490.6'
p397
sg13
S'1.1'
p398
ssS'Sc6'
p399
(dp400
g3
S'na'
p401
sg5
S'0.25'
p402
sg7
S'4.8e-6'
p403
sg9
S'Scaife_2011'
p404
sg11
S'911.1'
p405
sg13
S'1.8'
p406
ssS'Sc1'
p407
(dp408
g3
S'na'
p409
sg5
S'0.25'
p410
sg7
S'1.3e-6'
p411
sg9
S'Scaife_2011'
p412
sg11
S'336.2'
p413
sg13
S'2.3'
p414
ssS'Sc3'
p415
(dp416
g3
S'na'
p417
sg5
S'0.25'
p418
sg7
S'1.4e-6'
p419
sg9
S'Scaife_2011'
p420
sg11
S'191.6'
p421
sg13
S'1.1'
p422
ssS'Sc2'
p423
(dp424
g3
S'na'
p425
sg5
S'0.25'
p426
sg7
S'9.6e-6'
p427
sg9
S'Scaife_2011'
p428
sg11
S'499.9'
p429
sg13
S'1.5'
p430
ssS'Sc55'
p431
(dp432
g3
S'na'
p433
sg5
S'0.26'
p434
sg7
S'na'
p435
sg9
S'Scaife_2012'
p436
sg11
S'128.'
p437
sg13
S'2.2'
p438
ssS'Sc54'
p439
(dp440
g3
S'na'
p441
sg5
S'0.26'
p442
sg7
S'na'
p443
sg9
S'Scaife_2012'
p444
sg11
S'128.'
p445
sg13
S'0.62'
p446
ssS'Sc57'
p447
(dp448
g3
S'na'
p449
sg5
S'0.26'
p450
sg7
S'na'
p451
sg9
S'Scaife_2012'
p452
sg11
S'162.'
p453
sg13
S'1.2'
p454
ssS'Sc56'
p455
(dp456
g3
S'na'
p457
sg5
S'0.26'
p458
sg7
S'na'
p459
sg9
S'Scaife_2012'
p460
sg11
S'138.'
p461
sg13
S'5.8'
p462
ssS'Ang38'
p463
(dp464
g3
S'2.1e-2'
p465
sg5
S'na'
p466
sg7
S'4.0e-5'
p467
sg9
S'Anglada_95'
p468
sg11
S'na'
p469
sg13
S'14.'
p470
ssS'Sc50'
p471
(dp472
g3
S'na'
p473
sg5
S'0.26'
p474
sg7
S'na'
p475
sg9
S'Scaife_2012'
p476
sg11
S'450.'
p477
sg13
S'2.6'
p478
ssS'Sc53'
p479
(dp480
g3
S'na'
p481
sg5
S'0.26'
p482
sg7
S'na'
p483
sg9
S'Scaife_2012'
p484
sg11
S'122.'
p485
sg13
S'1.8'
p486
ssS'Sc52'
p487
(dp488
g3
S'na'
p489
sg5
S'0.26'
p490
sg7
S'na'
p491
sg9
S'Scaife_2012'
p492
sg11
S'118.'
p493
sg13
S'13.8'
p494
ssS'Ang34'
p495
(dp496
g3
S'1.8e-1'
p497
sg5
S'na'
p498
sg7
S'5.3e-4'
p499
sg9
S'Anglada_95'
p500
sg11
S'na'
p501
sg13
S'148.'
p502
ssS'Ang35'
p503
(dp504
g3
S'2.3e-1'
p505
sg5
S'na'
p506
sg7
S'9.4e-4'
p507
sg9
S'Anglada_95'
p508
sg11
S'na'
p509
sg13
S'120.'
p510
ssS'Ang36'
p511
(dp512
g3
S'7.0e-2'
p513
sg5
S'na'
p514
sg7
S'4.3e-4'
p515
sg9
S'Anglada_95'
p516
sg11
S'na'
p517
sg13
S'40.'
p518
ssS'Ang37'
p519
(dp520
g3
S'1.9e-1'
p521
sg5
S'na'
p522
sg7
S'3.2e-3'
p523
sg9
S'Anglada_95'
p524
sg11
S'na'
p525
sg13
S'300.'
p526
ssS'Ang30'
p527
(dp528
g3
S'4.6e-2'
p529
sg5
S'na'
p530
sg7
S'4.4e-4'
p531
sg9
S'Anglada_95'
p532
sg11
S'na'
p533
sg13
S'26.'
p534
ssS'Ang31'
p535
(dp536
g3
S'1.9e-1'
p537
sg5
S'na'
p538
sg7
S'5.0e-5'
p539
sg9
S'Anglada_95'
p540
sg11
S'na'
p541
sg13
S'24.'
p542
ssS'Ang32'
p543
(dp544
g3
S'8.0e-2'
p545
sg5
S'na'
p546
sg7
S'2.1e-4'
p547
sg9
S'Anglada_95'
p548
sg11
S'na'
p549
sg13
S'12.'
p550
ssS'Ang33'
p551
(dp552
g3
S'2.8e-1'
p553
sg5
S'na'
p554
sg7
S'7.8e-4'
p555
sg9
S'Anglada_95'
p556
sg11
S'na'
p557
sg13
S'123.'
p558
ssS'CepA'
p559
(dp560
g3
S'3.63'
p561
sg5
S'na'
p562
sg7
S'5.4e-3'
p563
sg9
S'Anglada_talk'
p564
sg11
S'na'
p565
sg13
S'1.0e4'
p566
ssS'W75N-VLA3'
p567
(dp568
g3
S'16.0'
p569
sg5
S'na'
p570
sg7
S'0.0'
p571
sg9
S'Garay_talk'
p572
sg11
S'na'
p573
sg13
S'1.4e5'
p574
ssS'G76.383-0.621'
p575
(dp576
g3
S'na'
p577
sg5
S'1.0'
p578
sg7
S'na'
p579
sg9
S'Kurtz_94'
p580
sg11
S'14900.'
p581
sg13
S'3.2e4'
p582
ssS'Sc20'
p583
(dp584
g3
S'na'
p585
sg5
S'0.25'
p586
sg7
S'56.7e-6'
p587
sg9
S'Scaife_2011'
p588
sg11
S'233.4'
p589
sg13
S'13.8'
p590
ssS'Sc21'
p591
(dp592
g3
S'na'
p593
sg5
S'0.25'
p594
sg7
S'2.1e-6'
p595
sg9
S'Scaife_2011'
p596
sg11
S'236.'
p597
sg13
S'2.0'
p598
ssS'Sc22'
p599
(dp600
g3
S'na'
p601
sg5
S'0.25'
p602
sg7
S'na'
p603
sg9
S'Scaife_2011'
p604
sg11
S'217.'
p605
sg13
S'4.1'
p606
ssS'Sc23'
p607
(dp608
g3
S'na'
p609
sg5
S'0.25'
p610
sg7
S'129e-6'
p611
sg9
S'Scaife_2011'
p612
sg11
S'245'
p613
sg13
S'3.4'
p614
ssS'Sc24'
p615
(dp616
g3
S'na'
p617
sg5
S'0.25'
p618
sg7
S'na'
p619
sg9
S'Scaife_2011'
p620
sg11
S'227.7'
p621
sg13
S'0.24'
p622
ssS'Sc25'
p623
(dp624
g3
S'na'
p625
sg5
S'0.25'
p626
sg7
S'na'
p627
sg9
S'Scaife_2011'
p628
sg11
S'116.'
p629
sg13
S'0.02'
p630
ssS'Sc26'
p631
(dp632
g3
S'na'
p633
sg5
S'0.25'
p634
sg7
S'na'
p635
sg9
S'Scaife_2011'
p636
sg11
S'275.6'
p637
sg13
S'0.22'
p638
ssS'Sc27'
p639
(dp640
g3
S'na'
p641
sg5
S'0.25'
p642
sg7
S'na'
p643
sg9
S'Scaife_2011'
p644
sg11
S'87.'
p645
sg13
S'0.20'
p646
ssS'Sc28'
p647
(dp648
g3
S'na'
p649
sg5
S'0.25'
p650
sg7
S'na'
p651
sg9
S'Scaife_2011'
p652
sg11
S'96.'
p653
sg13
S'0.06'
p654
ssS'Sc29'
p655
(dp656
g3
S'na'
p657
sg5
S'0.25'
p658
sg7
S'0.9e-6'
p659
sg9
S'Scaife_2011'
p660
sg11
S'320.2'
p661
sg13
S'1.2'
p662
ssS'Ang43'
p663
(dp664
g3
S'3.4e-3'
p665
sg5
S'na'
p666
sg7
S'5.4e-6'
p667
sg9
S'Anglada_95'
p668
sg11
S'na'
p669
sg13
S'1.'
p670
ssS'Ang42'
p671
(dp672
g3
S'9.0e-3'
p673
sg5
S'na'
p674
sg7
S'4.5e-5'
p675
sg9
S'Anglada_95'
p676
sg11
S'na'
p677
sg13
S'3.'
p678
ssS'Ang45'
p679
(dp680
g3
S'3.2e-1'
p681
sg5
S'na'
p682
sg7
S'2.3e-5'
p683
sg9
S'Anglada_95'
p684
sg11
S'na'
p685
sg13
S'19.'
p686
ssS'Ang44'
p687
(dp688
g3
S'1.2e-0'
p689
sg5
S'na'
p690
sg7
S'5.1e-3'
p691
sg9
S'Anglada_95'
p692
sg11
S'na'
p693
sg13
S'520.'
p694
ssS'18089-1732'
p695
(dp696
g3
S'14.256'
p697
sg5
S'na'
p698
sg7
S'5.0e-4'
p699
sg9
S'Garay_talk'
p700
sg11
S'na'
p701
sg13
S'3.2e4'
p702
ssS'G48.606+0.0024'
p703
(dp704
g3
S'na'
p705
sg5
S'9.7'
p706
sg7
S'na'
p707
sg9
S'Kurtz_94'
p708
sg11
S'4200.'
p709
sg13
S'84.7e4'
p710
ssS'G33.133-0.092'
p711
(dp712
g3
S'na'
p713
sg5
S'7.1'
p714
sg7
S'na'
p715
sg9
S'Kurtz_94'
p716
sg11
S'461200.'
p717
sg13
S'12.8e4'
p718
ssS'G35.200-1.741'
p719
(dp720
g3
S'na'
p721
sg5
S'3.2'
p722
sg7
S'na'
p723
sg9
S'Kurtz_94'
p724
sg11
S'1778200.'
p725
sg13
S'28.9e4'
p726
ssS'G206.543-16.347'
p727
(dp728
g3
S'na'
p729
sg5
S'0.5'
p730
sg7
S'na'
p731
sg9
S'Kurtz_94'
p732
sg11
S'8.9e3'
p733
sg13
S'1.3e4'
p734
ssS'Sc33'
p735
(dp736
g3
S'na'
p737
sg5
S'0.25'
p738
sg7
S'na'
p739
sg9
S'Scaife_2011'
p740
sg11
S'227.8'
p741
sg13
S'1.0'
p742
ssS'Sc32'
p743
(dp744
g3
S'na'
p745
sg5
S'0.25'
p746
sg7
S'na'
p747
sg9
S'Scaife_2011'
p748
sg11
S'223.'
p749
sg13
S'0.04'
p750
ssS'Sc31'
p751
(dp752
g3
S'na'
p753
sg5
S'0.25'
p754
sg7
S'na'
p755
sg9
S'Scaife_2011'
p756
sg11
S'87.'
p757
sg13
S'1.1'
p758
ssS'Sc30'
p759
(dp760
g3
S'na'
p761
sg5
S'0.25'
p762
sg7
S'3.7e-6'
p763
sg9
S'Scaife_2011'
p764
sg11
S'305.1'
p765
sg13
S'1.1'
p766
ssS'Sc37'
p767
(dp768
g3
S'na'
p769
sg5
S'0.25'
p770
sg7
S'na'
p771
sg9
S'Scaife_2011'
p772
sg11
S'114.'
p773
sg13
S'0.57'
p774
ssS'Sc36'
p775
(dp776
g3
S'na'
p777
sg5
S'0.25'
p778
sg7
S'na'
p779
sg9
S'Scaife_2011'
p780
sg11
S'90.1'
p781
sg13
S'0.64'
p782
ssS'Sc35'
p783
(dp784
g3
S'na'
p785
sg5
S'0.25'
p786
sg7
S'na'
p787
sg9
S'Scaife_2011'
p788
sg11
S'90.'
p789
sg13
S'0.45'
p790
ssS'Sc34'
p791
(dp792
g3
S'na'
p793
sg5
S'0.25'
p794
sg7
S'na'
p795
sg9
S'Scaife_2011'
p796
sg11
S'98.'
p797
sg13
S'0.04'
p798
ssS'W75N(B)VLA1'
p799
(dp800
g3
S'16.0'
p801
sg5
S'na'
p802
sg7
S'0.0'
p803
sg9
S'Garay_talk'
p804
sg11
S'na'
p805
sg13
S'1.5e4'
p806
ssS'Sc39'
p807
(dp808
g3
S'na'
p809
sg5
S'0.25'
p810
sg7
S'na'
p811
sg9
S'Scaife_2011'
p812
sg11
S'125.'
p813
sg13
S'0.26'
p814
ssS'Sc38'
p815
(dp816
g3
S'na'
p817
sg5
S'0.25'
p818
sg7
S'na'
p819
sg9
S'Scaife_2011'
p820
sg11
S'206.7'
p821
sg13
S'0.29'
p822
ssS'CRL2136-RS4'
p823
(dp824
g3
S'2.24'
p825
sg5
S'na'
p826
sg7
S'0.0'
p827
sg9
S'Garay_talk'
p828
sg11
S'na'
p829
sg13
S'5.0e4'
p830
ssS'Sc51'
p831
(dp832
g3
S'na'
p833
sg5
S'0.26'
p834
sg7
S'na'
p835
sg9
S'Scaife_2012'
p836
sg11
S'1000.'
p837
sg13
S'6.1'
p838
ssS'G111.282-0.663'
p839
(dp840
g3
S'na'
p841
sg5
S'2.5'
p842
sg7
S'na'
p843
sg9
S'Kurtz_94'
p844
sg11
S'101200.'
p845
sg13
S'3.1e4'
p846
ssS'20126'
p847
(dp848
g3
S'0.578'
p849
sg5
S'na'
p850
sg7
S'9.3e-2'
p851
sg9
S'Anglada_talk'
p852
sg11
S'na'
p853
sg13
S'1.3e4'
p854
ssS'16562-3959'
p855
(dp856
g3
S'20.736'
p857
sg5
S'na'
p858
sg7
S'0.0'
p859
sg9
S'Garay_talk'
p860
sg11
S'na'
p861
sg13
S'7.0e4'
p862
ssS'G213.880-11.837'
p863
(dp864
g3
S'na'
p865
sg5
S'1.0'
p866
sg7
S'na'
p867
sg9
S'Kurtz_94'
p868
sg11
S'118.3e3'
p869
sg13
S'1.1e4'
p870
ssS'18162'
p871
(dp872
g3
S'14.45'
p873
sg5
S'na'
p874
sg7
S'0.0'
p875
sg9
S'Garay_talk'
p876
sg11
S'na'
p877
sg13
S'1.7e4'
p878
ssS'G189.876+0.516'
p879
(dp880
g3
S'na'
p881
sg5
S'2.8'
p882
sg7
S'na'
p883
sg9
S'Kurtz_94'
p884
sg11
S'1.9e3'
p885
sg13
S'2.7e4'
p886
ssS'GL5142-2'
p887
(dp888
g3
S'0.97'
p889
sg5
S'na'
p890
sg7
S'1.0e-2'
p891
sg9
S'Anglada_talk'
p892
sg11
S'na'
p893
sg13
S'3.8e3'
p894
ssS'GL5142-1'
p895
(dp896
g3
S'3.24'
p897
sg5
S'na'
p898
sg7
S'4.8e-3'
p899
sg9
S'Anglada_talk'
p900
sg11
S'na'
p901
sg13
S'3.8e3'
p902
ssS'16547'
p903
(dp904
g3
S'73.167'
p905
sg5
S'na'
p906
sg7
S'4.0e-1'
p907
sg9
S'Anglada_talk'
p908
sg11
S'na'
p909
sg13
S'6.0e4'
p910
ssS'G189.030+0.784'
p911
(dp912
g3
S'na'
p913
sg5
S'0.8'
p914
sg7
S'na'
p915
sg9
S'Kurtz_94'
p916
sg11
S'0.7e3'
p917
sg13
S'0.3e4'
p918
ssS'G192.584-0.041'
p919
(dp920
g3
S'na'
p921
sg5
S'2.5'
p922
sg7
S'na'
p923
sg9
S'Kurtz_94'
p924
sg11
S'22.3e3'
p925
sg13
S'6.1e4'
p926
ssS'Sc19'
p927
(dp928
g3
S'na'
p929
sg5
S'0.25'
p930
sg7
S'8.2e-6'
p931
sg9
S'Scaife_2011'
p932
sg11
S'391.3'
p933
sg13
S'4.6'
p934
ssS'Sc18'
p935
(dp936
g3
S'na'
p937
sg5
S'0.25'
p938
sg7
S'35.5e-6'
p939
sg9
S'Scaife_2011'
p940
sg11
S'1587.'
p941
sg13
S'5.2'
p942
ssS'G139.909+0.197'
p943
(dp944
g3
S'na'
p945
sg5
S'4.2'
p946
sg7
S'na'
p947
sg9
S'Kurtz_94'
p948
sg11
S'20.0e3'
p949
sg13
S'6.6e4'
p950
ssS'Sc11'
p951
(dp952
g3
S'na'
p953
sg5
S'0.25'
p954
sg7
S'28.4e-6'
p955
sg9
S'Scaife_2011'
p956
sg11
S'1858.7'
p957
sg13
S'10.4'
p958
ssS'Sc10'
p959
(dp960
g3
S'na'
p961
sg5
S'0.25'
p962
sg7
S'21.5e-6'
p963
sg9
S'Scaife_2011'
p964
sg11
S'1856.8'
p965
sg13
S'3.3'
p966
ssS'Sc13'
p967
(dp968
g3
S'na'
p969
sg5
S'0.25'
p970
sg7
S'7.9e-6'
p971
sg9
S'Scaife_2011'
p972
sg11
S'610.2'
p973
sg13
S'2.5'
p974
ssS'Sc12'
p975
(dp976
g3
S'na'
p977
sg5
S'0.25'
p978
sg7
S'16.3e-6'
p979
sg9
S'Scaife_2011'
p980
sg11
S'473.0'
p981
sg13
S'3.8'
p982
ssS'Sc15'
p983
(dp984
g3
S'na'
p985
sg5
S'0.25'
p986
sg7
S'7.3e-6'
p987
sg9
S'Scaife_2011'
p988
sg11
S'1135.'
p989
sg13
S'4.3'
p990
ssS'Sc14'
p991
(dp992
g3
S'na'
p993
sg5
S'0.25'
p994
sg7
S'2.8e-6'
p995
sg9
S'Scaife_2011'
p996
sg11
S'140.'
p997
sg13
S'1.2'
p998
ssS'Sc17'
p999
(dp1000
g3
S'na'
p1001
sg5
S'0.25'
p1002
sg7
S'1.4e-6'
p1003
sg9
S'Scaife_2011'
p1004
sg11
S'116.'
p1005
sg13
S'1.1'
p1006
ssS'Sc16'
p1007
(dp1008
g3
S'na'
p1009
sg5
S'0.25'
p1010
sg7
S'2.5e-6'
p1011
sg9
S'Scaife_2011'
p1012
sg11
S'98.'
p1013
sg13
S'2.0'
p1014
ssS'G133.947+1.064'
p1015
(dp1016
g3
S'na'
p1017
sg5
S'3.0'
p1018
sg7
S'na'
p1019
sg9
S'Kurtz_94'
p1020
sg11
S'1209.2e3'
p1021
sg13
S'20.6e4'
p1022
ssS'G28.288-0.364'
p1023
(dp1024
g3
S'na'
p1025
sg5
S'3.3'
p1026
sg7
S'na'
p1027
sg9
S'Kurtz_94'
p1028
sg11
S'784000.'
p1029
sg13
S'11.7e4'
p1030
ssS'G35.2-0.7N'
p1031
(dp1032
g3
S'1.6'
p1033
sg5
S'na'
p1034
sg7
S'0.0'
p1035
sg9
S'Garay_talk'
p1036
sg11
S'na'
p1037
sg13
S'1.6e4'
p1038
ssS'Ang39'
p1039
(dp1040
g3
S'4.2e-2'
p1041
sg5
S'na'
p1042
sg7
S'8.6e-5'
p1043
sg9
S'Anglada_95'
p1044
sg11
S'na'
p1045
sg13
S'27.'
p1046
ssS'16547-4247'
p1047
(dp1048
g3
S'49.619'
p1049
sg5
S'na'
p1050
sg7
S'0.0'
p1051
sg9
S'Garay_talk'
p1052
sg11
S'na'
p1053
sg13
S'6.2e4'
p1054
ss.