(dp0
S'IRAS_20126+4104'
p1
(dp2
S'A'
p3
(dp4
S'Snu_w_o[Jy]'
p5
(lp6
S'0.727920189434'
p7
aS'2.2390594561'
p8
aS'2.04408999049'
p9
aS'0.4177591715260'
p10
aS'1.87351864461'
p11
aS'23.8436074208'
p12
aS'190.122382674'
p13
aS'440.315906421'
p14
aS'738.820699887'
p15
aS'1519.0530284'
p16
aS'783.369258805'
p17
aS'210.160130014'
p18
aS'51.6140152644'
p19
aS'11.0667050816'
p20
aS'--'
p21
aS'--'
p22
aS'--'
p23
aS'--'
p24
asS'r'
p25
I4
sS'RA'
p26
(lp27
S'--'
p28
aS'--'
p29
aS'--'
p30
aS'--'
p31
aS'--'
p32
aS'--'
p33
aS'--'
p34
aS'--'
p35
aS'--'
p36
aS'--'
p37
aS'--'
p38
aS'--'
p39
aS'--'
p40
aS'--'
p41
aS'20:14:26.03'
p42
aS'20:14:26.03'
p43
aS'20:14:26.03'
p44
aS'20:14:26.03'
p45
asS'Snu_w[Jy]'
p46
(lp47
F0.678516091108
aF1.90334662279
aF1.36311951081
aF0.405972231972
aF1.87351864461
aF23.8436074208
aF188.347643957
aF438.100858607
aF729.162825702
aF1398.43415437
aF654.725465897
aF142.980474227
aF25.3911042402
aF2.93172765703
aF0.0009415
aF0.0007091
aF8.58e-05
aF5.72e-05
asS'x'
p48
I3
sS'Dec'
p49
(lp50
S'--'
p51
aS'--'
p52
aS'--'
p53
aS'--'
p54
aS'--'
p55
aS'--'
p56
aS'--'
p57
aS'--'
p58
aS'--'
p59
aS'--'
p60
aS'--'
p61
aS'--'
p62
aS'--'
p63
aS'--'
p64
aS'$+$41:13:32.5'
p65
aS'$+$41:13:32.5'
p66
aS'$+$41:13:32.5'
p67
aS'$+$41:13:32.5'
p68
asS'Freq[GHz]'
p69
(lp70
F83275.68277777777
aF51688.354827586205
aF37474.05725
aF27008.329549549548
aF23983.39664
aF16382.101530054644
aF11849.504268774703
aF9517.220888888889
aF8080.659245283018
aF4282.7494
aF1873.7028624999998
aF1199.169832
aF856.5498799999999
aF599.584916
aF25.499993450470672
aF20.899995259388152
aF7.400000789879861
aF4.90000274590117
assS'C'
p71
(dp72
g5
(lp73
S'0.727920189434'
p74
aS'2.2390594561'
p75
aS'2.04408999049'
p76
aS'0.4177591715260'
p77
aS'1.87351864461'
p78
aS'23.8436074208'
p79
aS'190.122382674'
p80
aS'440.315906421'
p81
aS'738.820699887'
p82
aS'1519.0530284'
p83
aS'783.369258805'
p84
aS'210.160130014'
p85
aS'51.6140152644'
p86
aS'11.0667050816'
p87
aS'--'
p88
aS'--'
p89
aS'--'
p90
aS'--'
p91
asg25
I4
sg26
(lp92
S'--'
p93
aS'--'
p94
aS'--'
p95
aS'--'
p96
aS'--'
p97
aS'--'
p98
aS'--'
p99
aS'--'
p100
aS'--'
p101
aS'--'
p102
aS'--'
p103
aS'--'
p104
aS'--'
p105
aS'--'
p106
aS'\\nodata'
p107
aS'\\nodata'
p108
aS'20:14:25.83'
p109
aS'20:14:25.82'
p110
asg46
(lp111
F0.678516091108
aF1.90334662279
aF1.36311951081
aF0.405972231972
aF1.87351864461
aF23.8436074208
aF188.347643957
aF438.100858607
aF729.162825702
aF1398.43415437
aF654.725465897
aF142.980474227
aF25.3911042402
aF2.93172765703
aF4.5e-05
aF3.9e-05
aF0.0001752
aF0.0001907
asg48
I3
sg49
(lp112
S'--'
p113
aS'--'
p114
aS'--'
p115
aS'--'
p116
aS'--'
p117
aS'--'
p118
aS'--'
p119
aS'--'
p120
aS'--'
p121
aS'--'
p122
aS'--'
p123
aS'--'
p124
aS'--'
p125
aS'--'
p126
aS'\\nodata'
p127
aS'\\nodata'
p128
aS'$+$41:13:35.9'
p129
aS'$+$41:13:35.9'
p130
asg69
(lp131
F83275.68277777777
aF51688.354827586205
aF37474.05725
aF27008.329549549548
aF23983.39664
aF16382.101530054644
aF11849.504268774703
aF9517.220888888889
aF8080.659245283018
aF4282.7494
aF1873.7028624999998
aF1199.169832
aF856.5498799999999
aF599.584916
aF25.499993450470672
aF20.899995259388152
aF7.400000789879861
aF4.90000274590117
assS'B'
p132
(dp133
g5
(lp134
S'0.727920189434'
p135
aS'2.2390594561'
p136
aS'2.04408999049'
p137
aS'0.4177591715260'
p138
aS'1.87351864461'
p139
aS'23.8436074208'
p140
aS'190.122382674'
p141
aS'440.315906421'
p142
aS'738.820699887'
p143
aS'1519.0530284'
p144
aS'783.369258805'
p145
aS'210.160130014'
p146
aS'51.6140152644'
p147
aS'11.0667050816'
p148
aS'--'
p149
aS'--'
p150
aS'--'
p151
aS'--'
p152
asg25
I4
sg26
(lp153
S'--'
p154
aS'--'
p155
aS'--'
p156
aS'--'
p157
aS'--'
p158
aS'--'
p159
aS'--'
p160
aS'--'
p161
aS'--'
p162
aS'--'
p163
aS'--'
p164
aS'--'
p165
aS'--'
p166
aS'--'
p167
aS'20:14:26.02'
p168
aS'20:14:26.02'
p169
aS'20:14:26.02'
p170
aS'20:14:26.02'
p171
asg46
(lp172
F0.678516091108
aF1.90334662279
aF1.36311951081
aF0.405972231972
aF1.87351864461
aF23.8436074208
aF188.347643957
aF438.100858607
aF729.162825702
aF1398.43415437
aF654.725465897
aF142.980474227
aF25.3911042402
aF2.93172765703
aF9.71e-05
aF0.0001172
aF6.61e-05
aF7.01e-05
asg48
I3
sg49
(lp173
S'--'
p174
aS'--'
p175
aS'--'
p176
aS'--'
p177
aS'--'
p178
aS'--'
p179
aS'--'
p180
aS'--'
p181
aS'--'
p182
aS'--'
p183
aS'--'
p184
aS'--'
p185
aS'--'
p186
aS'--'
p187
aS'$+$41:13:31.7'
p188
aS'$+$41:13:31.7'
p189
aS'$+$41:13:31.7'
p190
aS'$+$41:13:31.7'
p191
asg69
(lp192
F83275.68277777777
aF51688.354827586205
aF37474.05725
aF27008.329549549548
aF23983.39664
aF16382.101530054644
aF11849.504268774703
aF9517.220888888889
aF8080.659245283018
aF4282.7494
aF1873.7028624999998
aF1199.169832
aF856.5498799999999
aF599.584916
aF25.499993450470672
aF20.899995259388152
aF7.400000789879861
aF4.90000274590117
assS'D'
p193
(dp194
g5
(lp195
S'0.727920189434'
p196
aS'2.2390594561'
p197
aS'2.04408999049'
p198
aS'0.4177591715260'
p199
aS'1.87351864461'
p200
aS'23.8436074208'
p201
aS'190.122382674'
p202
aS'440.315906421'
p203
aS'738.820699887'
p204
aS'1519.0530284'
p205
aS'783.369258805'
p206
aS'210.160130014'
p207
aS'51.6140152644'
p208
aS'11.0667050816'
p209
aS'--'
p210
aS'--'
p211
aS'--'
p212
aS'--'
p213
asg25
I4
sg26
(lp214
S'--'
p215
aS'--'
p216
aS'--'
p217
aS'--'
p218
aS'--'
p219
aS'--'
p220
aS'--'
p221
aS'--'
p222
aS'--'
p223
aS'--'
p224
aS'--'
p225
aS'--'
p226
aS'--'
p227
aS'--'
p228
aS'20:14:26.24'
p229
aS'20:14:26.24'
p230
aS'20:14:26.24'
p231
aS'20:14:26.23'
p232
asg46
(lp233
F0.678516091108
aF1.90334662279
aF1.36311951081
aF0.405972231972
aF1.87351864461
aF23.8436074208
aF188.347643957
aF438.100858607
aF729.162825702
aF1398.43415437
aF654.725465897
aF142.980474227
aF25.3911042402
aF2.93172765703
aF0.0001044
aF0.0001328
aF0.0002094
aF0.0002551
asg48
I3
sg49
(lp234
S'--'
p235
aS'--'
p236
aS'--'
p237
aS'--'
p238
aS'--'
p239
aS'--'
p240
aS'--'
p241
aS'--'
p242
aS'--'
p243
aS'--'
p244
aS'--'
p245
aS'--'
p246
aS'--'
p247
aS'--'
p248
aS'$+$41:13:28.0'
p249
aS'$+$41:13:28.0'
p250
aS'$+$41:13:28.0'
p251
aS'$+$41:13:28.0'
p252
asg69
(lp253
F83275.68277777777
aF51688.354827586205
aF37474.05725
aF27008.329549549548
aF23983.39664
aF16382.101530054644
aF11849.504268774703
aF9517.220888888889
aF8080.659245283018
aF4282.7494
aF1873.7028624999998
aF1199.169832
aF856.5498799999999
aF599.584916
aF25.499993450470672
aF20.899995259388152
aF7.400000789879861
aF4.90000274590117
asssS'Cepheus_A'
p254
(dp255
g3
(dp256
g5
(lp257
S'16.5118897851'
p258
aS'28.6743664506'
p259
aS'30.1120018842'
p260
aS'19.003744742'
p261
aS'17.4026110903'
p262
aS'131.565606467'
p263
aS'2726.47203127'
p264
aS'6274.90053528'
p265
aS'15297.9889445'
p266
aS'12005.5692533'
p267
aS'1291.90954199'
p268
aS'411.221245993'
p269
aS'--'
p270
aS'--'
p271
aS'--'
p272
asg25
I3
sg26
(lp273
S'--'
p274
aS'--'
p275
aS'--'
p276
aS'--'
p277
aS'--'
p278
aS'--'
p279
aS'--'
p280
aS'--'
p281
aS'--'
p282
aS'--'
p283
aS'--'
p284
aS'--'
p285
aS'22:56:17.99'
p286
aS'22:56:17.99'
p287
aS'22:56:17.98'
p288
asg46
(lp289
F15.8674877403
aF27.9028234527
aF27.611099865
aF21.2508069829
aF13.8019548186
aF137.895410327
aF2771.38056044
aF6261.86883919
aF14636.623762
aF10876.5556792
aF1053.87258201
aF317.554624281
aF0.065
aF0.0185
aF0.00685
asg48
I5
sg49
(lp290
S'--'
p291
aS'--'
p292
aS'--'
p293
aS'--'
p294
aS'--'
p295
aS'--'
p296
aS'--'
p297
aS'--'
p298
aS'--'
p299
aS'--'
p300
aS'--'
p301
aS'--'
p302
aS'$+$62:01:49.6'
p303
aS'$+$62:01:49.6'
p304
aS'$+$62:01:49.5'
p305
asg69
(lp306
F83275.68277777777
aF66620.54622222221
aF51688.354827586205
aF38934.08545454545
aF37474.05725
aF15217.891269035532
aF9517.220888888889
aF8080.659245283018
aF4282.7494
aF1873.7028624999998
aF856.5498799999999
aF599.584916
aF42.827493999999994
aF23.060958307692307
aF8.327568277777777
asssS'AFGL_4029'
p307
(dp308
g3
(dp309
g5
(lp310
S'2.70507753756'
p311
aS'3.74582030258'
p312
aS'7.62585172467'
p313
aS'12.7200649773'
p314
aS'11.0775656869'
p315
aS'59.4301493013'
p316
aS'193.829061338'
p317
aS'418.902052442'
p318
aS'394.438468431'
p319
aS'264.269376202'
p320
aS'103.60831778'
p321
aS'31.7163052989'
p322
aS'8.1618952716'
p323
aS'--'
p324
aS'--'
p325
aS'--'
p326
aS'--'
p327
asg25
I4
sg26
(lp328
S'--'
p329
aS'--'
p330
aS'--'
p331
aS'--'
p332
aS'--'
p333
aS'--'
p334
aS'--'
p335
aS'--'
p336
aS'--'
p337
aS'--'
p338
aS'--'
p339
aS'--'
p340
aS'--'
p341
aS'03:01:31.28'
p342
aS'03:01:31.28'
p343
aS'03:01:31.27'
p344
aS'03:01:31.28'
p345
asg46
(lp346
F2.60096639788
aF3.62308080247
aF7.12785652207
aF12.8818464172
aF10.3412997393
aF57.2507256063
aF187.263653474
aF404.558504216
aF349.672971686
aF179.710693568
aF40.5914851885
aF10.1745434497
aF1.15501242159
aF0.000417
aF0.0004076
aF0.000104
aF9.09e-05
asg48
I5
sg49
(lp347
S'--'
p348
aS'--'
p349
aS'--'
p350
aS'--'
p351
aS'--'
p352
aS'--'
p353
aS'--'
p354
aS'--'
p355
aS'--'
p356
aS'--'
p357
aS'--'
p358
aS'--'
p359
aS'--'
p360
aS'$+$60:29:12.8'
p361
aS'$+$60:29:12.8'
p362
aS'$+$60:29:12.8'
p363
aS'$+$60:29:12.8'
p364
asg69
(lp365
F83275.68277777777
aF66620.54622222221
aF51688.354827586205
aF38934.08545454545
aF37474.05725
aF15217.891269035532
aF9517.220888888889
aF8080.659245283018
aF4282.7494
aF1873.7028624999998
aF1199.169832
aF856.5498799999999
aF599.584916
aF45.995598549276444
aF41.995914890994186
aF6.300000058840706
aF5.3000000015911
assg132
(dp366
g5
(lp367
S'2.70507753756'
p368
aS'3.74582030258'
p369
aS'7.62585172467'
p370
aS'12.7200649773'
p371
aS'11.0775656869'
p372
aS'59.4301493013'
p373
aS'193.829061338'
p374
aS'418.902052442'
p375
aS'394.438468431'
p376
aS'264.269376202'
p377
aS'103.60831778'
p378
aS'31.7163052989'
p379
aS'8.1618952716'
p380
aS'--'
p381
aS'--'
p382
aS'--'
p383
aS'--'
p384
asg25
I4
sg26
(lp385
S'--'
p386
aS'--'
p387
aS'--'
p388
aS'--'
p389
aS'--'
p390
aS'--'
p391
aS'--'
p392
aS'--'
p393
aS'--'
p394
aS'--'
p395
aS'--'
p396
aS'--'
p397
aS'--'
p398
aS'\\nodata'
p399
aS'\\nodata'
p400
aS'03:01:31.44'
p401
aS'03:01:31.42'
p402
asg46
(lp403
F2.60096639788
aF3.62308080247
aF7.12785652207
aF12.8818464172
aF10.3412997393
aF57.2507256063
aF187.263653474
aF404.558504216
aF349.672971686
aF179.710693568
aF40.5914851885
aF10.1745434497
aF1.15501242159
aF0.000285
aF0.00021
aF2.78e-05
aF2.56e-05
asg48
I5
sg49
(lp404
S'--'
p405
aS'--'
p406
aS'--'
p407
aS'--'
p408
aS'--'
p409
aS'--'
p410
aS'--'
p411
aS'--'
p412
aS'--'
p413
aS'--'
p414
aS'--'
p415
aS'--'
p416
aS'--'
p417
aS'\\nodata'
p418
aS'\\nodata'
p419
aS'$+$60:29:13.2'
p420
aS'$+$60:29:13.1'
p421
asg69
(lp422
F83275.68277777777
aF66620.54622222221
aF51688.354827586205
aF38934.08545454545
aF37474.05725
aF15217.891269035532
aF9517.220888888889
aF8080.659245283018
aF4282.7494
aF1873.7028624999998
aF1199.169832
aF856.5498799999999
aF599.584916
aF45.995598549276444
aF41.995914890994186
aF6.300000058840706
aF5.3000000015911
asssS'NGC_7538_IRS9'
p423
(dp424
g3
(dp425
g5
(lp426
S'2.99044287849'
p427
aS'8.15241201347'
p428
aS'41.1675151385'
p429
aS'62.7531111322'
p430
aS'44.2519786014'
p431
aS'167.663371567'
p432
aS'620.357290498'
p433
aS'837.118434019'
p434
aS'1680.67442128'
p435
aS'1296.47303907'
p436
aS'525.488130375'
p437
aS'176.601919265'
p438
aS'52.0417232015'
p439
aS'--'
p440
aS'--'
p441
aS'--'
p442
aS'--'
p443
asg25
I4
sg26
(lp444
S'--'
p445
aS'--'
p446
aS'--'
p447
aS'--'
p448
aS'--'
p449
aS'--'
p450
aS'--'
p451
aS'--'
p452
aS'--'
p453
aS'--'
p454
aS'--'
p455
aS'--'
p456
aS'--'
p457
aS'23:14:01.76'
p458
aS'23:14:01.76'
p459
aS'23:14:01.76'
p460
aS'23:14:01.76'
p461
asg46
(lp462
F2.79615166653
aF7.88514626031
aF39.5457898923
aF64.2355479176
aF41.6438020101
aF171.495907345
aF615.831103852
aF843.244229667
aF1567.96836593
aF1019.06530216
aF343.605729606
aF90.6097254073
aF13.6160747999
aF0.00231
aF0.00203
aF0.000275
aF0.000344
asg48
I5
sg49
(lp463
S'--'
p464
aS'--'
p465
aS'--'
p466
aS'--'
p467
aS'--'
p468
aS'--'
p469
aS'--'
p470
aS'--'
p471
aS'--'
p472
aS'--'
p473
aS'--'
p474
aS'--'
p475
aS'--'
p476
aS'$+$61:27:19.8'
p477
aS'$+$61:27:19.8'
p478
aS'$+$61:27:19.8'
p479
aS'$+$61:27:19.8'
p480
asg69
(lp481
F83275.68277777777
aF66620.54622222221
aF51688.354827586205
aF38934.08545454545
aF37474.05725
aF15217.891269035532
aF9517.220888888889
aF8080.659245283018
aF4282.7494
aF1873.7028624999998
aF1199.169832
aF856.5498799999999
aF599.584916
aF45.99687587742245
aF41.99709150917361
aF6.299000131488106
aF5.299000028086467
assg132
(dp482
g5
(lp483
S'2.99044287849'
p484
aS'8.15241201347'
p485
aS'41.1675151385'
p486
aS'62.7531111322'
p487
aS'44.2519786014'
p488
aS'167.663371567'
p489
aS'620.357290498'
p490
aS'837.118434019'
p491
aS'1680.67442128'
p492
aS'1296.47303907'
p493
aS'525.488130375'
p494
aS'176.601919265'
p495
aS'52.0417232015'
p496
aS'--'
p497
aS'--'
p498
aS'--'
p499
aS'--'
p500
asg25
I4
sg26
(lp501
S'--'
p502
aS'--'
p503
aS'--'
p504
aS'--'
p505
aS'--'
p506
aS'--'
p507
aS'--'
p508
aS'--'
p509
aS'--'
p510
aS'--'
p511
aS'--'
p512
aS'--'
p513
aS'--'
p514
aS'\\nodata'
p515
aS'\\nodata'
p516
aS'23:14:01.85'
p517
aS'23:14:01.85'
p518
asg46
(lp519
F2.79615166653
aF7.88514626031
aF39.5457898923
aF64.2355479176
aF41.6438020101
aF171.495907345
aF615.831103852
aF843.244229667
aF1567.96836593
aF1019.06530216
aF343.605729606
aF90.6097254073
aF13.6160747999
aF0.00021
aF0.00018
aF0.000154
aF0.000161
asg48
I5
sg49
(lp520
S'--'
p521
aS'--'
p522
aS'--'
p523
aS'--'
p524
aS'--'
p525
aS'--'
p526
aS'--'
p527
aS'--'
p528
aS'--'
p529
aS'--'
p530
aS'--'
p531
aS'--'
p532
aS'--'
p533
aS'\\nodata'
p534
aS'\\nodata'
p535
aS'$+$61:27:21.4'
p536
aS'$+$61:27:21.4'
p537
asg69
(lp538
F83275.68277777777
aF66620.54622222221
aF51688.354827586205
aF38934.08545454545
aF37474.05725
aF15217.891269035532
aF9517.220888888889
aF8080.659245283018
aF4282.7494
aF1873.7028624999998
aF1199.169832
aF856.5498799999999
aF599.584916
aF45.99687587742245
aF41.99709150917361
aF6.299000131488106
aF5.299000028086467
asssS'IRAS_07299-1651'
p539
(dp540
g3
(dp541
g5
(lp542
S'1.42334797969'
p543
aS'2.5433206955'
p544
aS'3.14839208753'
p545
aS'3.31421095782'
p546
aS'2.50885466796'
p547
aS'1.71199429851'
p548
aS'74.0393990611'
p549
aS'458.460432783'
p550
aS'704.959239353'
p551
aS'--'
p552
asg25
I1
sg26
(lp553
S'--'
p554
aS'--'
p555
aS'--'
p556
aS'--'
p557
aS'--'
p558
aS'--'
p559
aS'--'
p560
aS'--'
p561
aS'--'
p562
aS'07:32:09.79'
p563
asg46
(lp564
F1.3359670108
aF2.40941318908
aF2.96213710385
aF3.47814957555
aF2.30386256744
aF1.55775959816
aF73.8208406427
aF445.971440275
aF681.057401277
aF0.001
asg48
I5
sg49
(lp565
S'--'
p566
aS'--'
p567
aS'--'
p568
aS'--'
p569
aS'--'
p570
aS'--'
p571
aS'--'
p572
aS'--'
p573
aS'--'
p574
aS'$-$16:58:10.9'
p575
asg69
(lp576
F83275.68277777777
aF66620.54622222221
aF51688.354827586205
aF38934.08545454545
aF37474.05725
aF25623.28700854701
aF15217.891269035532
aF9517.220888888889
aF8080.659245283018
aF8.640000288199388
asssS'G35.20-0.74'
p577
(dp578
g3
(dp579
g5
(lp580
S'0.604065511739'
p581
aS'1.23814993811'
p582
aS'2.6388992007'
p583
aS'4.90216373042'
p584
aS'3.81771416525'
p585
aS'63.0280896542'
p586
aS'55.9148404744'
p587
aS'550.600811639'
p588
aS'1120.23013029'
p589
aS'2732.70094883'
p590
aS'2807.2527066'
p591
aS'594.464705165'
p592
aS'195.721316521'
p593
aS'--'
p594
aS'--'
p595
aS'--'
p596
aS'--'
p597
aS'--'
p598
aS'--'
p599
asg25
I6
sg26
(lp600
S'--'
p601
aS'--'
p602
aS'--'
p603
aS'--'
p604
aS'--'
p605
aS'--'
p606
aS'--'
p607
aS'--'
p608
aS'--'
p609
aS'--'
p610
aS'--'
p611
aS'--'
p612
aS'--'
p613
aS'18:58:13.04'
p614
aS'18:58:13.04'
p615
aS'18:58:13.04'
p616
aS'18:58:13.04'
p617
aS'18:58:13.04'
p618
aS'18:58:13.04'
p619
asg46
(lp620
F0.496664521869
aF1.2396665014
aF1.83998529039
aF3.2210567103
aF3.81771416525
aF63.0280896542
aF68.1823626429
aF552.799899181
aF1192.54373771
aF2627.59351506
aF2385.57542199
aF428.567087685
aF127.391672904
aF0.00276
aF0.00233
aF0.00193
aF0.00152
aF0.000301
aF0.000344
asg48
I4
sg49
(lp621
S'--'
p622
aS'--'
p623
aS'--'
p624
aS'--'
p625
aS'--'
p626
aS'--'
p627
aS'--'
p628
aS'--'
p629
aS'--'
p630
aS'--'
p631
aS'--'
p632
aS'--'
p633
aS'--'
p634
aS'$+$01:40:35.9'
p635
aS'$+$01:40:35.9'
p636
aS'$+$01:40:35.9'
p637
aS'$+$01:40:35.9'
p638
aS'$+$01:40:35.9'
p639
aS'$+$01:40:35.9'
p640
asg69
(lp641
F83275.68277777777
aF66620.54622222221
aF51688.354827586205
aF37474.05725
aF25623.28700854701
aF16382.101530054644
aF15217.891269035532
aF9670.724451612903
aF8102.498864864864
aF4282.7494
aF1873.7028624999998
aF856.5498799999999
aF599.584916
aF45.999000210054085
aF41.99909779521604
aF23.99929953584443
aF19.99930074067986
aF6.999000014311191
aF4.999000058111919
assg71
(dp642
g5
(lp643
S'0.604065511739'
p644
aS'1.23814993811'
p645
aS'2.6388992007'
p646
aS'4.90216373042'
p647
aS'3.81771416525'
p648
aS'63.0280896542'
p649
aS'55.9148404744'
p650
aS'550.600811639'
p651
aS'1120.23013029'
p652
aS'2732.70094883'
p653
aS'2807.2527066'
p654
aS'594.464705165'
p655
aS'195.721316521'
p656
aS'--'
p657
aS'--'
p658
aS'--'
p659
aS'--'
p660
aS'--'
p661
aS'--'
p662
asg25
I6
sg26
(lp663
S'--'
p664
aS'--'
p665
aS'--'
p666
aS'--'
p667
aS'--'
p668
aS'--'
p669
aS'--'
p670
aS'--'
p671
aS'--'
p672
aS'--'
p673
aS'--'
p674
aS'--'
p675
aS'--'
p676
aS'18:58:13.02'
p677
aS'18:58:13.02'
p678
aS'18:58:13.02'
p679
aS'18:58:13.02'
p680
aS'18:58:13.02'
p681
aS'18:58:13.02'
p682
asg46
(lp683
F0.496664521869
aF1.2396665014
aF1.83998529039
aF3.2210567103
aF3.81771416525
aF63.0280896542
aF68.1823626429
aF552.799899181
aF1192.54373771
aF2627.59351506
aF2385.57542199
aF428.567087685
aF127.391672904
aF0.000292
aF0.000284
aF0.000553
aF0.000569
aF0.000555
aF0.00066
asg48
I4
sg49
(lp684
S'--'
p685
aS'--'
p686
aS'--'
p687
aS'--'
p688
aS'--'
p689
aS'--'
p690
aS'--'
p691
aS'--'
p692
aS'--'
p693
aS'--'
p694
aS'--'
p695
aS'--'
p696
aS'--'
p697
aS'$+$01:40:34.1'
p698
aS'$+$01:40:34.1'
p699
aS'$+$01:40:34.1'
p700
aS'$+$01:40:34.1'
p701
aS'$+$01:40:34.1'
p702
aS'$+$01:40:34.1'
p703
asg69
(lp704
F83275.68277777777
aF66620.54622222221
aF51688.354827586205
aF37474.05725
aF25623.28700854701
aF16382.101530054644
aF15217.891269035532
aF9670.724451612903
aF8102.498864864864
aF4282.7494
aF1873.7028624999998
aF856.5498799999999
aF599.584916
aF45.999000210054085
aF41.99909779521604
aF23.99929953584443
aF19.99930074067986
aF6.999000014311191
aF4.999000058111919
assg132
(dp705
g5
(lp706
S'0.604065511739'
p707
aS'1.23814993811'
p708
aS'2.6388992007'
p709
aS'4.90216373042'
p710
aS'3.81771416525'
p711
aS'63.0280896542'
p712
aS'55.9148404744'
p713
aS'550.600811639'
p714
aS'1120.23013029'
p715
aS'2732.70094883'
p716
aS'2807.2527066'
p717
aS'594.464705165'
p718
aS'195.721316521'
p719
aS'--'
p720
aS'--'
p721
aS'--'
p722
aS'--'
p723
aS'--'
p724
aS'--'
p725
asg25
I6
sg26
(lp726
S'--'
p727
aS'--'
p728
aS'--'
p729
aS'--'
p730
aS'--'
p731
aS'--'
p732
aS'--'
p733
aS'--'
p734
aS'--'
p735
aS'--'
p736
aS'--'
p737
aS'--'
p738
aS'--'
p739
aS'18:58:13.04'
p740
aS'18:58:13.04'
p741
aS'18:58:13.04'
p742
aS'18:58:13.04'
p743
aS'18:58:13.04'
p744
aS'18:58:13.04'
p745
asg46
(lp746
F0.496664521869
aF1.2396665014
aF1.83998529039
aF3.2210567103
aF3.81771416525
aF63.0280896542
aF68.1823626429
aF552.799899181
aF1192.54373771
aF2627.59351506
aF2385.57542199
aF428.567087685
aF127.391672904
aF0.000979
aF0.00104
aF0.00197
aF0.00181
aF0.000958
aF0.00127
asg48
I4
sg49
(lp747
S'--'
p748
aS'--'
p749
aS'--'
p750
aS'--'
p751
aS'--'
p752
aS'--'
p753
aS'--'
p754
aS'--'
p755
aS'--'
p756
aS'--'
p757
aS'--'
p758
aS'--'
p759
aS'--'
p760
aS'$+$01:40:35.3'
p761
aS'$+$01:40:35.3'
p762
aS'$+$01:40:35.3'
p763
aS'$+$01:40:35.3'
p764
aS'$+$01:40:35.3'
p765
aS'$+$01:40:35.3'
p766
asg69
(lp767
F83275.68277777777
aF66620.54622222221
aF51688.354827586205
aF37474.05725
aF25623.28700854701
aF16382.101530054644
aF15217.891269035532
aF9670.724451612903
aF8102.498864864864
aF4282.7494
aF1873.7028624999998
aF856.5498799999999
aF599.584916
aF45.999000210054085
aF41.99909779521604
aF23.99929953584443
aF19.99930074067986
aF6.999000014311191
aF4.999000058111919
assS'E'
p768
(dp769
g5
(lp770
S'0.604065511739'
p771
aS'1.23814993811'
p772
aS'2.6388992007'
p773
aS'4.90216373042'
p774
aS'3.81771416525'
p775
aS'63.0280896542'
p776
aS'55.9148404744'
p777
aS'550.600811639'
p778
aS'1120.23013029'
p779
aS'2732.70094883'
p780
aS'2807.2527066'
p781
aS'594.464705165'
p782
aS'195.721316521'
p783
aS'--'
p784
aS'--'
p785
aS'--'
p786
aS'--'
p787
aS'--'
p788
aS'--'
p789
asg25
I6
sg26
(lp790
S'--'
p791
aS'--'
p792
aS'--'
p793
aS'--'
p794
aS'--'
p795
aS'--'
p796
aS'--'
p797
aS'--'
p798
aS'--'
p799
aS'--'
p800
aS'--'
p801
aS'--'
p802
aS'--'
p803
aS'\\nodata'
p804
aS'\\nodata'
p805
aS'18:58:13.05'
p806
aS'18:58:13.05'
p807
aS'18:58:13.05'
p808
aS'18:58:13.05'
p809
asg46
(lp810
F0.496664521869
aF1.2396665014
aF1.83998529039
aF3.2210567103
aF3.81771416525
aF63.0280896542
aF68.1823626429
aF552.799899181
aF1192.54373771
aF2627.59351506
aF2385.57542199
aF428.567087685
aF127.391672904
aF9e-05
aF6e-05
aF0.000147
aF0.000177
aF0.000157
aF0.00042
asg48
I4
sg49
(lp811
S'--'
p812
aS'--'
p813
aS'--'
p814
aS'--'
p815
aS'--'
p816
aS'--'
p817
aS'--'
p818
aS'--'
p819
aS'--'
p820
aS'--'
p821
aS'--'
p822
aS'--'
p823
aS'--'
p824
aS'\\nodata'
p825
aS'\\nodata'
p826
aS'$+$01:40:38.2'
p827
aS'$+$01:40:38.2'
p828
aS'$+$01:40:38.2'
p829
aS'$+$01:40:38.2'
p830
asg69
(lp831
F83275.68277777777
aF66620.54622222221
aF51688.354827586205
aF37474.05725
aF25623.28700854701
aF16382.101530054644
aF15217.891269035532
aF9670.724451612903
aF8102.498864864864
aF4282.7494
aF1873.7028624999998
aF856.5498799999999
aF599.584916
aF45.999000210054085
aF41.99909779521604
aF23.99929953584443
aF19.99930074067986
aF6.999000014311191
aF4.999000058111919
assg193
(dp832
g5
(lp833
S'0.604065511739'
p834
aS'1.23814993811'
p835
aS'2.6388992007'
p836
aS'4.90216373042'
p837
aS'3.81771416525'
p838
aS'63.0280896542'
p839
aS'55.9148404744'
p840
aS'550.600811639'
p841
aS'1120.23013029'
p842
aS'2732.70094883'
p843
aS'2807.2527066'
p844
aS'594.464705165'
p845
aS'195.721316521'
p846
aS'--'
p847
aS'--'
p848
aS'--'
p849
aS'--'
p850
aS'--'
p851
aS'--'
p852
asg25
I6
sg26
(lp853
S'--'
p854
aS'--'
p855
aS'--'
p856
aS'--'
p857
aS'--'
p858
aS'--'
p859
aS'--'
p860
aS'--'
p861
aS'--'
p862
aS'--'
p863
aS'--'
p864
aS'--'
p865
aS'--'
p866
aS'18:58:12.95'
p867
aS'18:58:12.95'
p868
aS'18:58:12.95'
p869
aS'18:58:12.95'
p870
aS'18:58:12.95'
p871
aS'18:58:12.95'
p872
asg46
(lp873
F0.496664521869
aF1.2396665014
aF1.83998529039
aF3.2210567103
aF3.81771416525
aF63.0280896542
aF68.1823626429
aF552.799899181
aF1192.54373771
aF2627.59351506
aF2385.57542199
aF428.567087685
aF127.391672904
aF0.000911
aF0.000758
aF0.000399
aF0.000336
aF0.00017
aF5.89e-05
asg48
I4
sg49
(lp874
S'--'
p875
aS'--'
p876
aS'--'
p877
aS'--'
p878
aS'--'
p879
aS'--'
p880
aS'--'
p881
aS'--'
p882
aS'--'
p883
aS'--'
p884
aS'--'
p885
aS'--'
p886
aS'--'
p887
aS'$+$01:40:37.5'
p888
aS'$+$01:40:37.5'
p889
aS'$+$01:40:37.5'
p890
aS'$+$01:40:37.5'
p891
aS'$+$01:40:37.5'
p892
aS'$+$01:40:37.5'
p893
asg69
(lp894
F83275.68277777777
aF66620.54622222221
aF51688.354827586205
aF37474.05725
aF25623.28700854701
aF16382.101530054644
aF15217.891269035532
aF9670.724451612903
aF8102.498864864864
aF4282.7494
aF1873.7028624999998
aF856.5498799999999
aF599.584916
aF45.999000210054085
aF41.99909779521604
aF23.99929953584443
aF19.99930074067986
aF6.999000014311191
aF4.999000058111919
assS'G'
p895
(dp896
g5
(lp897
S'0.604065511739'
p898
aS'1.23814993811'
p899
aS'2.6388992007'
p900
aS'4.90216373042'
p901
aS'3.81771416525'
p902
aS'63.0280896542'
p903
aS'55.9148404744'
p904
aS'550.600811639'
p905
aS'1120.23013029'
p906
aS'2732.70094883'
p907
aS'2807.2527066'
p908
aS'594.464705165'
p909
aS'195.721316521'
p910
aS'--'
p911
aS'--'
p912
aS'--'
p913
aS'--'
p914
aS'--'
p915
aS'--'
p916
asg25
I6
sg26
(lp917
S'--'
p918
aS'--'
p919
aS'--'
p920
aS'--'
p921
aS'--'
p922
aS'--'
p923
aS'--'
p924
aS'--'
p925
aS'--'
p926
aS'--'
p927
aS'--'
p928
aS'--'
p929
aS'--'
p930
aS'\\nodata'
p931
aS'\\nodata'
p932
aS'\\nodata'
p933
aS'\\nodata'
p934
aS'18:58:13.12'
p935
aS'18:58:13.12'
p936
asg46
(lp937
F0.496664521869
aF1.2396665014
aF1.83998529039
aF3.2210567103
aF3.81771416525
aF63.0280896542
aF68.1823626429
aF552.799899181
aF1192.54373771
aF2627.59351506
aF2385.57542199
aF428.567087685
aF127.391672904
aF9e-05
aF6e-05
aF9e-05
aF9e-05
aF0.000213
aF0.000119
asg48
I4
sg49
(lp938
S'--'
p939
aS'--'
p940
aS'--'
p941
aS'--'
p942
aS'--'
p943
aS'--'
p944
aS'--'
p945
aS'--'
p946
aS'--'
p947
aS'--'
p948
aS'--'
p949
aS'--'
p950
aS'--'
p951
aS'\\nodata'
p952
aS'\\nodata'
p953
aS'\\nodata'
p954
aS'\\nodata'
p955
aS'$+$01:40:33.2'
p956
aS'$+$01:40:33.2'
p957
asg69
(lp958
F83275.68277777777
aF66620.54622222221
aF51688.354827586205
aF37474.05725
aF25623.28700854701
aF16382.101530054644
aF15217.891269035532
aF9670.724451612903
aF8102.498864864864
aF4282.7494
aF1873.7028624999998
aF856.5498799999999
aF599.584916
aF45.999000210054085
aF41.99909779521604
aF23.99929953584443
aF19.99930074067986
aF6.999000014311191
aF4.999000058111919
assS'F'
p959
(dp960
g5
(lp961
S'0.604065511739'
p962
aS'1.23814993811'
p963
aS'2.6388992007'
p964
aS'4.90216373042'
p965
aS'3.81771416525'
p966
aS'63.0280896542'
p967
aS'55.9148404744'
p968
aS'550.600811639'
p969
aS'1120.23013029'
p970
aS'2732.70094883'
p971
aS'2807.2527066'
p972
aS'594.464705165'
p973
aS'195.721316521'
p974
aS'--'
p975
aS'--'
p976
aS'--'
p977
aS'--'
p978
aS'--'
p979
aS'--'
p980
asg25
I6
sg26
(lp981
S'--'
p982
aS'--'
p983
aS'--'
p984
aS'--'
p985
aS'--'
p986
aS'--'
p987
aS'--'
p988
aS'--'
p989
aS'--'
p990
aS'--'
p991
aS'--'
p992
aS'--'
p993
aS'--'
p994
aS'\\nodata'
p995
aS'\\nodata'
p996
aS'18:58:13.05'
p997
aS'18:58:13.05'
p998
aS'18:58:13.05'
p999
aS'18:58:13.05'
p1000
asg46
(lp1001
F0.496664521869
aF1.2396665014
aF1.83998529039
aF3.2210567103
aF3.81771416525
aF63.0280896542
aF68.1823626429
aF552.799899181
aF1192.54373771
aF2627.59351506
aF2385.57542199
aF428.567087685
aF127.391672904
aF0.00151
aF0.00126
aF0.00112
aF0.00102
aF0.000179
aF0.000192
asg48
I4
sg49
(lp1002
S'--'
p1003
aS'--'
p1004
aS'--'
p1005
aS'--'
p1006
aS'--'
p1007
aS'--'
p1008
aS'--'
p1009
aS'--'
p1010
aS'--'
p1011
aS'--'
p1012
aS'--'
p1013
aS'--'
p1014
aS'--'
p1015
aS'\\nodata'
p1016
aS'\\nodata'
p1017
aS'$+$01:40:38.2'
p1018
aS'$+$01:40:38.2'
p1019
aS'$+$01:40:38.2'
p1020
aS'$+$01:40:38.2'
p1021
asg69
(lp1022
F83275.68277777777
aF66620.54622222221
aF51688.354827586205
aF37474.05725
aF25623.28700854701
aF16382.101530054644
aF15217.891269035532
aF9670.724451612903
aF8102.498864864864
aF4282.7494
aF1873.7028624999998
aF856.5498799999999
aF599.584916
aF45.999000210054085
aF41.99909779521604
aF23.99929953584443
aF19.99930074067986
aF6.999000014311191
aF4.999000058111919
assS'N'
p1023
(dp1024
g5
(lp1025
S'0.604065511739'
p1026
aS'1.23814993811'
p1027
aS'2.6388992007'
p1028
aS'4.90216373042'
p1029
aS'3.81771416525'
p1030
aS'63.0280896542'
p1031
aS'55.9148404744'
p1032
aS'550.600811639'
p1033
aS'1120.23013029'
p1034
aS'2732.70094883'
p1035
aS'2807.2527066'
p1036
aS'594.464705165'
p1037
aS'195.721316521'
p1038
aS'--'
p1039
aS'--'
p1040
aS'--'
p1041
aS'--'
p1042
aS'--'
p1043
aS'--'
p1044
asg25
I6
sg26
(lp1045
S'--'
p1046
aS'--'
p1047
aS'--'
p1048
aS'--'
p1049
aS'--'
p1050
aS'--'
p1051
aS'--'
p1052
aS'--'
p1053
aS'--'
p1054
aS'--'
p1055
aS'--'
p1056
aS'--'
p1057
aS'--'
p1058
aS'\\nodata'
p1059
aS'18:58:13.02'
p1060
aS'18:58:13.02'
p1061
aS'18:58:13.02'
p1062
aS'18:58:13.02'
p1063
aS'18:58:13.08'
p1064
asg46
(lp1065
F0.496664521869
aF1.2396665014
aF1.83998529039
aF3.2210567103
aF3.81771416525
aF63.0280896542
aF68.1823626429
aF552.799899181
aF1192.54373771
aF2627.59351506
aF2385.57542199
aF428.567087685
aF127.391672904
aF9e-05
aF0.001099
aF0.00314
aF0.00269
aF0.00236
aF0.00333
asg48
I4
sg49
(lp1066
S'--'
p1067
aS'--'
p1068
aS'--'
p1069
aS'--'
p1070
aS'--'
p1071
aS'--'
p1072
aS'--'
p1073
aS'--'
p1074
aS'--'
p1075
aS'--'
p1076
aS'--'
p1077
aS'--'
p1078
aS'--'
p1079
aS'\\nodata'
p1080
aS'$+$01:40:30.9'
p1081
aS'$+$01:40:30.9'
p1082
aS'$+$01:40:30.9'
p1083
aS'$+$01:40:30.9'
p1084
aS'$+$01:40:42.6'
p1085
asg69
(lp1086
F83275.68277777777
aF66620.54622222221
aF51688.354827586205
aF37474.05725
aF25623.28700854701
aF16382.101530054644
aF15217.891269035532
aF9670.724451612903
aF8102.498864864864
aF4282.7494
aF1873.7028624999998
aF856.5498799999999
aF599.584916
aF45.999000210054085
aF41.99909779521604
aF23.99929953584443
aF19.99930074067986
aF6.999000014311191
aF4.999000058111919
assS'S'
p1087
(dp1088
g5
(lp1089
S'0.604065511739'
p1090
aS'1.23814993811'
p1091
aS'2.6388992007'
p1092
aS'4.90216373042'
p1093
aS'3.81771416525'
p1094
aS'63.0280896542'
p1095
aS'55.9148404744'
p1096
aS'550.600811639'
p1097
aS'1120.23013029'
p1098
aS'2732.70094883'
p1099
aS'2807.2527066'
p1100
aS'594.464705165'
p1101
aS'195.721316521'
p1102
aS'--'
p1103
aS'--'
p1104
aS'--'
p1105
aS'--'
p1106
aS'--'
p1107
aS'--'
p1108
asg25
I6
sg26
(lp1109
S'--'
p1110
aS'--'
p1111
aS'--'
p1112
aS'--'
p1113
aS'--'
p1114
aS'--'
p1115
aS'--'
p1116
aS'--'
p1117
aS'--'
p1118
aS'--'
p1119
aS'--'
p1120
aS'--'
p1121
aS'--'
p1122
aS'\\nodata'
p1123
aS'18:58:13.02'
p1124
aS'18:58:13.02'
p1125
aS'18:58:13.02'
p1126
aS'18:58:13.02'
p1127
aS'18:58:13.02'
p1128
asg46
(lp1129
F0.496664521869
aF1.2396665014
aF1.83998529039
aF3.2210567103
aF3.81771416525
aF63.0280896542
aF68.1823626429
aF552.799899181
aF1192.54373771
aF2627.59351506
aF2385.57542199
aF428.567087685
aF127.391672904
aF9e-05
aF0.000736
aF0.00194
aF0.00189
aF0.00119
aF0.00173
asg48
I4
sg49
(lp1130
S'--'
p1131
aS'--'
p1132
aS'--'
p1133
aS'--'
p1134
aS'--'
p1135
aS'--'
p1136
aS'--'
p1137
aS'--'
p1138
aS'--'
p1139
aS'--'
p1140
aS'--'
p1141
aS'--'
p1142
aS'--'
p1143
aS'\\nodata'
p1144
aS'$+$01:40:30.9'
p1145
aS'$+$01:40:30.9'
p1146
aS'$+$01:40:30.9'
p1147
aS'$+$01:40:30.9'
p1148
aS'$+$01:40:30.9'
p1149
asg69
(lp1150
F83275.68277777777
aF66620.54622222221
aF51688.354827586205
aF37474.05725
aF25623.28700854701
aF16382.101530054644
aF15217.891269035532
aF9670.724451612903
aF8102.498864864864
aF4282.7494
aF1873.7028624999998
aF856.5498799999999
aF599.584916
aF45.999000210054085
aF41.99909779521604
aF23.99929953584443
aF19.99930074067986
aF6.999000014311191
aF4.999000058111919
asssS'AFGL_437'
p1151
(dp1152
g3
(dp1153
g5
(lp1154
S'0.403875891436'
p1155
aS'0.777441318803'
p1156
aS'1.77497557151'
p1157
aS'3.8938412446'
p1158
aS'3.31824882063'
p1159
aS'27.0886454983'
p1160
aS'65.1046210948'
p1161
aS'76.6989702388'
p1162
aS'--'
p1163
aS'--'
p1164
aS'--'
p1165
aS'--'
p1166
asg25
I4
sg26
(lp1167
S'--'
p1168
aS'--'
p1169
aS'--'
p1170
aS'--'
p1171
aS'--'
p1172
aS'--'
p1173
aS'--'
p1174
aS'--'
p1175
aS'03:07:24.49'
p1176
aS'03:07:24.49'
p1177
aS'03:07:24.49'
p1178
aS'03:07:24.49'
p1179
asg46
(lp1180
F0.35165912277
aF0.712466306471
aF1.5580792196
aF3.12801188146
aF2.77065295996
aF22.3746201213
aF46.2664026289
aF53.7962752921
aF0.00113
aF0.00102
aF0.000169
aF0.000132
asg48
I5
sg49
(lp1181
S'--'
p1182
aS'--'
p1183
aS'--'
p1184
aS'--'
p1185
aS'--'
p1186
aS'--'
p1187
aS'--'
p1188
aS'--'
p1189
aS'$+$58:30:42.8'
p1190
aS'$+$58:30:42.8'
p1191
aS'$+$58:30:42.8'
p1192
aS'$+$58:30:42.8'
p1193
asg69
(lp1194
F83275.68277777777
aF66620.54622222221
aF51688.354827586205
aF38934.08545454545
aF37474.05725
aF15217.891269035532
aF9517.220888888889
aF8080.659245283018
aF45.99560560614312
aF41.995914890994186
aF6.300000058840706
aF5.3000000015911
assg132
(dp1195
g5
(lp1196
S'2.39120045512'
p1197
aS'2.87268935594'
p1198
aS'11.0508488102'
p1199
aS'28.9564116735'
p1200
aS'27.0328263937'
p1201
aS'268.948925573'
p1202
aS'725.75531055'
p1203
aS'878.211736205'
p1204
aS'1180.80128049'
p1205
aS'825.242046678'
p1206
aS'341.636373983'
p1207
aS'119.547392592'
p1208
aS'36.7651717421'
p1209
aS'--'
p1210
aS'--'
p1211
asg25
I2
sg26
(lp1212
S'--'
p1213
aS'--'
p1214
aS'--'
p1215
aS'--'
p1216
aS'--'
p1217
aS'--'
p1218
aS'--'
p1219
aS'--'
p1220
aS'--'
p1221
aS'--'
p1222
aS'--'
p1223
aS'--'
p1224
aS'--'
p1225
aS'03:07:23.77'
p1226
aS'03:07:23.74'
p1227
asg46
(lp1228
F2.26207772
aF2.7652513328
aF10.268074293
aF29.6045002872
aF24.9754876472
aF271.020692037
aF732.343164903
aF877.908089419
aF1131.71185806
aF677.286454905
aF242.916530499
aF75.4585845905
aF20.0166483305
aF0.00444
aF0.00419
asg48
I5
sg49
(lp1229
S'--'
p1230
aS'--'
p1231
aS'--'
p1232
aS'--'
p1233
aS'--'
p1234
aS'--'
p1235
aS'--'
p1236
aS'--'
p1237
aS'--'
p1238
aS'--'
p1239
aS'--'
p1240
aS'--'
p1241
aS'--'
p1242
aS'$+$58:30:50.1'
p1243
aS'$+$58:30:49.8'
p1244
asg69
(lp1245
F83275.68277777777
aF66620.54622222221
aF51688.354827586205
aF38934.08545454545
aF37474.05725
aF15217.891269035532
aF9517.220888888889
aF8080.659245283018
aF4282.7494
aF1873.7028624999998
aF1199.169832
aF856.5498799999999
aF599.584916
aF6.300000058840706
aF5.3000000015911
asssS'G45.47+0.05'
p1246
(dp1247
g3
(dp1248
g5
(lp1249
S'0.0818651524612'
p1250
aS'0.0811286195938'
p1251
aS'0.346093693732'
p1252
aS'0.132653981182'
p1253
aS'0.375957311163'
p1254
aS'0.21188273346'
p1255
aS'0.135808922378'
p1256
aS'2.56192603103'
p1257
aS'6.56518264389'
p1258
aS'33.7525356809'
p1259
aS'137.682286507'
p1260
aS'201.76390678'
p1261
aS'1092.74445431'
p1262
aS'886.349193848'
p1263
aS'388.304260592'
p1264
aS'113.082092624'
p1265
aS'27.6081765506'
p1266
aS'--'
p1267
aS'--'
p1268
asg25
I2
sg26
(lp1269
S'--'
p1270
aS'--'
p1271
aS'--'
p1272
aS'--'
p1273
aS'--'
p1274
aS'--'
p1275
aS'--'
p1276
aS'--'
p1277
aS'--'
p1278
aS'--'
p1279
aS'--'
p1280
aS'--'
p1281
aS'--'
p1282
aS'--'
p1283
aS'--'
p1284
aS'--'
p1285
aS'--'
p1286
aS'19:14:25.68'
p1287
aS'19:14:25.67'
p1288
asg46
(lp1289
F0.0219289085721
aF0.117556803803
aF0.245596880587
aF0.153031587798
aF2.36690433255
aF0.360751411327
aF0.323269107706
aF2.29393193842
aF5.14206045254
aF45.9820479856
aF143.55707517
aF213.776619076
aF938.207158676
aF621.991257895
aF245.214525375
aF60.9657316664
aF8.67441933467
aF0.137
aF0.0912
asg48
I4
sg49
(lp1290
S'--'
p1291
aS'--'
p1292
aS'--'
p1293
aS'--'
p1294
aS'--'
p1295
aS'--'
p1296
aS'--'
p1297
aS'--'
p1298
aS'--'
p1299
aS'--'
p1300
aS'--'
p1301
aS'--'
p1302
aS'--'
p1303
aS'--'
p1304
aS'--'
p1305
aS'--'
p1306
aS'--'
p1307
aS'$+$11:09:25.8'
p1308
aS'$+$11:09:25.9'
p1309
asg69
(lp1310
F142758.31333333332
aF78892.75210526316
aF66620.54622222221
aF37474.05725
aF28551.662666666663
aF27008.329549549548
aF25623.28700854701
aF16382.101530054644
aF14413.098942307692
aF11849.504268774703
aF9517.220888888889
aF8080.659245283018
aF4282.7494
aF1873.7028624999998
aF1199.169832
aF856.5498799999999
aF599.584916
aF43.99340082386245
aF4.996540966666666
asss.