(dp0
S'IRAS_20126+4104'
p1
(dp2
S'1'
p3
(dp4
S'Mass_c[Mo]'
p5
F240.0
sS'sigma_cl[g cm^-2]'
p6
F0.1
sS'Mass_star[Mo]'
p7
F8.0
sS'Lum_bol[Lo]'
p8
F4200.0
ssS'3'
p9
(dp10
g5
F160.0
sg6
F0.1
sg7
F8.0
sg8
F3400.0
ssS'2'
p11
(dp12
g5
F200.0
sg6
F0.1
sg7
F8.0
sg8
F9300.0
sssS'Cepheus_A'
p13
(dp14
g3
(dp15
g5
F160.0
sg6
F0.3
sg7
F16.0
sg8
F50000.0
ssg9
(dp16
g5
F480.0
sg6
F0.1
sg7
F12.0
sg8
F24000.0
ssg11
(dp17
g5
F160.0
sg6
F0.3
sg7
F12.0
sg8
F38000.0
ssS'5'
p18
(dp19
g5
F120.0
sg6
F0.3
sg7
F12.0
sg8
F36000.0
ssS'4'
p20
(dp21
g5
F160.0
sg6
F0.3
sg7
F24.0
sg8
F99000.0
sssS'AFGL_4029'
p22
(dp23
g3
(dp24
g5
F80.0
sg6
F0.1
sg7
F8.0
sg8
F9670.0
ssg9
(dp25
g5
F120.0
sg6
F0.1
sg7
F8.0
sg8
F8820.0
ssg11
(dp26
g5
F100.0
sg6
F0.1
sg7
F8.0
sg8
F8210.0
ssg18
(dp27
g5
F40.0
sg6
F3.16
sg7
F16.0
sg8
F94000.0
ssg20
(dp28
g5
F160.0
sg6
F0.1
sg7
F8.0
sg8
F8720.0
sssS'NGC_7538_IRS9'
p29
(dp30
g3
(dp31
g5
F400.0
sg6
F0.1
sg7
F16.0
sg8
F38000.0
ssg9
(dp32
g5
F240.0
sg6
F0.1
sg7
F24.0
sg8
F82000.0
ssg11
(dp33
g5
F320.0
sg6
F0.1
sg7
F16.0
sg8
F37000.0
ssg18
(dp34
g5
F60.0
sg6
F3.2
sg7
F12.0
sg8
F50000.0
ssg20
(dp35
g5
F480.0
sg6
F0.1
sg7
F16.0
sg8
F38000.0
sssS'IRAS_07299-1651'
p36
(dp37
g3
(dp38
g5
F240.0
sg6
F0.1
sg7
F8.0
sg8
F11000.0
ssg9
(dp39
g5
F240.0
sg6
F0.1
sg7
F12.0
sg8
F20000.0
ssg11
(dp40
g5
F80.0
sg6
F0.3
sg7
F16.0
sg8
F42000.0
ssg18
(dp41
g5
F400.0
sg6
F0.1
sg7
F8.0
sg8
F10000.0
ssg20
(dp42
g5
F200.0
sg6
F0.1
sg7
F12.0
sg8
F20000.0
sssS'G35.20-0.74'
p43
(dp44
g3
(dp45
g5
F0.0
sg6
F0.0
sg7
F0.0
sg8
F0.0
ssg20
(dp46
g5
F0.0
sg6
F0.0
sg7
F0.0
sg8
F0.0
sssS'AFGL_437'
p47
(dp48
g3
(dp49
g5
F10.0
sg6
F3.2
sg7
F2.0
sg8
F2590.0
ssg9
(dp50
g5
F50.0
sg6
F0.3
sg7
F16.0
sg8
F31300.0
ssg11
(dp51
g5
F50.0
sg6
F0.1
sg7
F12.0
sg8
F13600.0
ssg18
(dp52
g5
F60.0
sg6
F1.0
sg7
F24.0
sg8
F92900.0
ssg20
(dp53
g5
F20.0
sg6
F3.2
sg7
F4.0
sg8
F3330.0
sssS'G45.47+0.05'
p54
(dp55
g3
(dp56
g5
F200.0
sg6
F3.2
sg7
F32.0
sg8
F460000.0
ssg9
(dp57
g5
F320.0
sg6
F1.0
sg7
F32.0
sg8
F270000.0
ssg11
(dp58
g5
F320.0
sg6
F1.0
sg7
F48.0
sg8
F510000.0
ssg18
(dp59
g5
F240.0
sg6
F1.0
sg7
F24.0
sg8
F170000.0
ssg20
(dp60
g5
F240.0
sg6
F1.0
sg7
F32.0
sg8
F260000.0
sss.